; Function Attrs: nounwind uwtable
define noalias noundef ptr @Gia_IsoCollectData(ptr noundef readonly captures(none) %0, ptr noundef readonly captures(none) %1) local_unnamed_addr #2 {
  %3 = getelementptr i8, ptr %1, i64 4
  %.val12 = load i32, ptr %3, align 4, !tbaa !36
  %4 = tail call noalias dereferenceable_or_null(16) ptr @malloc(i64 noundef 16) #18
  %5 = add i32 %.val12, -1
  %or.cond.i = icmp ult i32 %5, 15
  %spec.store.select.i = select i1 %or.cond.i, i32 16, i32 %.val12
  %6 = getelementptr inbounds nuw i8, ptr %4, i64 4
  store i32 0, ptr %6, align 4, !tbaa !36
  store i32 %spec.store.select.i, ptr %4, align 8, !tbaa !41
  %.not.i = icmp eq i32 %spec.store.select.i, 0
  br i1 %.not.i, label %Vec_IntAlloc.exit, label %7

7:                                                ; preds = %2
  %8 = sext i32 %spec.store.select.i to i64
  %9 = shl nsw i64 %8, 2
  %10 = tail call noalias ptr @malloc(i64 noundef %9) #18
  br label %Vec_IntAlloc.exit

Vec_IntAlloc.exit:                                ; preds = %2, %7
  %11 = phi ptr [ %10, %7 ], [ null, %2 ]
  %12 = getelementptr inbounds nuw i8, ptr %4, i64 8
  store ptr %11, ptr %12, align 8, !tbaa !34
  %13 = getelementptr i8, ptr %0, i64 32
  %14 = icmp sgt i32 %.val12, 0
  br i1 %14, label %.lr.ph, label %.critedge

.lr.ph:                                           ; preds = %Vec_IntAlloc.exit
  %15 = getelementptr i8, ptr %1, i64 8
  br label %16

16:                                               ; preds = %.lr.ph, %Vec_IntPush.exit
  %17 = phi ptr [ %11, %.lr.ph ], [ %.pre.i18, %Vec_IntPush.exit ]
  %indvars.iv = phi i64 [ 0, %.lr.ph ], [ %indvars.iv.next, %Vec_IntPush.exit ]
  %.val = load ptr, ptr %13, align 8, !tbaa !28
  %.not = icmp eq ptr %.val, null
  br i1 %.not, label %.critedge, label %18

18:                                               ; preds = %16
  %.val10 = load ptr, ptr %15, align 8, !tbaa !34
  %19 = getelementptr inbounds nuw i32, ptr %.val10, i64 %indvars.iv
  %20 = load i32, ptr %19, align 4, !tbaa !29
  %21 = sext i32 %20 to i64
  %22 = getelementptr inbounds %struct.Gia_Obj_t_, ptr %.val, i64 %21, i32 1
  %23 = load i32, ptr %22, align 4, !tbaa !30
  %24 = load i32, ptr %6, align 4, !tbaa !36
  %25 = load i32, ptr %4, align 8, !tbaa !41
  %26 = icmp eq i32 %24, %25
  br i1 %26, label %27, label %Vec_IntPush.exit

27:                                               ; preds = %18
  %28 = icmp slt i32 %24, 16
  br i1 %28, label %29, label %34

29:                                               ; preds = %27
  %.not9.i.i = icmp eq ptr %17, null
  br i1 %.not9.i.i, label %32, label %30

30:                                               ; preds = %29
  %31 = tail call dereferenceable_or_null(64) ptr @realloc(ptr noundef nonnull %17, i64 noundef 64) #20
  br label %Vec_IntPush.exit.sink.split

32:                                               ; preds = %29
  %33 = tail call noalias dereferenceable_or_null(64) ptr @malloc(i64 noundef 64) #18
  br label %Vec_IntPush.exit.sink.split

34:                                               ; preds = %27
  %35 = shl nuw nsw i32 %24, 1
  %.not9.i9.i = icmp eq ptr %17, null
  %36 = zext nneg i32 %35 to i64
  %37 = shl nuw nsw i64 %36, 2
  br i1 %.not9.i9.i, label %40, label %38

38:                                               ; preds = %34
  %39 = tail call ptr @realloc(ptr noundef nonnull %17, i64 noundef %37) #20
  br label %Vec_IntPush.exit.sink.split

40:                                               ; preds = %34
  %41 = tail call noalias ptr @malloc(i64 noundef %37) #18
  br label %Vec_IntPush.exit.sink.split

Vec_IntPush.exit.sink.split:                      ; preds = %38, %40, %30, %32
  %.sink19 = phi ptr [ %31, %30 ], [ %33, %32 ], [ %39, %38 ], [ %41, %40 ]
  %.sink = phi i32 [ 16, %30 ], [ 16, %32 ], [ %35, %38 ], [ %35, %40 ]
  store ptr %.sink19, ptr %12, align 8, !tbaa !34
  store i32 %.sink, ptr %4, align 8, !tbaa !41
  br label %Vec_IntPush.exit

Vec_IntPush.exit:                                 ; preds = %Vec_IntPush.exit.sink.split, %18
  %.pre.i18 = phi ptr [ %17, %18 ], [ %.sink19, %Vec_IntPush.exit.sink.split ]
  %42 = add nsw i32 %24, 1
  store i32 %42, ptr %6, align 4, !tbaa !36
  %43 = sext i32 %24 to i64
  %44 = getelementptr inbounds i32, ptr %.pre.i18, i64 %43
  store i32 %23, ptr %44, align 4, !tbaa !29
  %indvars.iv.next = add nuw nsw i64 %indvars.iv, 1
  %.val11 = load i32, ptr %3, align 4, !tbaa !36
  %45 = sext i32 %.val11 to i64
  %46 = icmp slt i64 %indvars.iv.next, %45
  br i1 %46, label %16, label %.critedge, !llvm.loop !58

.critedge:                                        ; preds = %16, %Vec_IntPush.exit, %Vec_IntAlloc.exit
  ret ptr %4
}